; Function Attrs: nounwind uwtable
define hidden range(i32 0, 2) i32 @X509_VERIFY_PARAM_set1_ip_asc(ptr noundef readonly captures(none) %0, ptr noundef %1) local_unnamed_addr #0 {
  %3 = alloca [16 x i8], align 16
  call void @llvm.lifetime.start.p0(i64 16, ptr nonnull %3) #16
  %4 = call i32 @a2i_ipadd(ptr noundef nonnull %3, ptr noundef %1) #16
  %5 = icmp eq i32 %4, 0
  br i1 %5, label %X509_VERIFY_PARAM_set1_ip.exit, label %6

6:                                                ; preds = %2
  %7 = sext i32 %4 to i64
  switch i32 %4, label %X509_VERIFY_PARAM_set1_ip.exit [
    i32 16, label %8
    i32 4, label %8
  ]

8:                                                ; preds = %6, %6
  %9 = getelementptr inbounds nuw i8, ptr %0, i64 56
  %10 = load ptr, ptr %9, align 8, !tbaa !6
  %11 = getelementptr inbounds nuw i8, ptr %10, i64 40
  %12 = getelementptr inbounds nuw i8, ptr %10, i64 48
  %13 = call ptr @BUF_memdup(ptr noundef nonnull %3, i64 noundef %7) #16
  %.not21.i.i = icmp eq ptr %13, null
  br i1 %.not21.i.i, label %X509_VERIFY_PARAM_set1_ip.exit, label %14

14:                                               ; preds = %8
  %15 = load ptr, ptr %11, align 8, !tbaa !32
  %.not22.i.i = icmp eq ptr %15, null
  br i1 %.not22.i.i, label %17, label %16

16:                                               ; preds = %14
  call void @free(ptr noundef nonnull %15) #16
  br label %17

17:                                               ; preds = %16, %14
  store ptr %13, ptr %11, align 8, !tbaa !32
  store i64 %7, ptr %12, align 8, !tbaa !33
  br label %X509_VERIFY_PARAM_set1_ip.exit

X509_VERIFY_PARAM_set1_ip.exit:                   ; preds = %17, %8, %6, %2
  %.0 = phi i32 [ 0, %2 ], [ 0, %6 ], [ 0, %8 ], [ 1, %17 ]
  call void @llvm.lifetime.end.p0(i64 16, ptr nonnull %3) #16
  ret i32 %.0
}